; ModuleID = 'bench/linux/original/interrupts.ll'
source_filename = "bench/linux/original/interrupts.ll"
target datalayout = "e-m:e-p270:32:32-p271:32:32-p272:64:64-i64:64-i128:128-f80:128-n8:16:32:64-S128"
target triple = "x86_64-unknown-linux-gnu"

module asm ".section\09\22.initcall5.init\22, \22a\22\09\09"
module asm "__initcall__kmod_proc__289_42_proc_interrupts_init5:\09\09\09"
module asm ".long\09proc_interrupts_init - .\09"
module asm ".previous\09\09\09\09\09"

%struct.seq_operations = type { ptr, ptr, ptr, ptr }

@__UNIQUE_ID___addressable_proc_interrupts_init290 = internal global ptr @proc_interrupts_init, section ".discard.addressable", align 8
@.str = private unnamed_addr constant [11 x i8] c"interrupts\00", align 1
@int_seq_ops = internal constant %struct.seq_operations { ptr @int_seq_start, ptr @int_seq_stop, ptr @int_seq_next, ptr @show_interrupts }, align 8
@nr_irqs = external dso_local local_unnamed_addr global i32, align 4
@llvm.compiler.used = appending global [1 x ptr] [ptr @__UNIQUE_ID___addressable_proc_interrupts_init290], section "llvm.metadata"

; Function Attrs: cold fn_ret_thunk_extern nounwind null_pointer_is_valid optsize
define internal noundef i32 @proc_interrupts_init() #0 section ".init.text" align 16 {
  %1 = tail call ptr @proc_create_seq_private(ptr noundef nonnull @.str, i16 noundef zeroext 0, ptr noundef null, ptr noundef nonnull @int_seq_ops, i32 noundef 0, ptr noundef null) #5
  ret i32 0
}

; Function Attrs: null_pointer_is_valid
declare dso_local ptr @proc_create_seq_private(ptr noundef, i16 noundef zeroext, ptr noundef, ptr noundef, i32 noundef, ptr noundef) local_unnamed_addr #1

; Function Attrs: fn_ret_thunk_extern mustprogress nofree norecurse nosync nounwind null_pointer_is_valid willreturn memory(read, inaccessiblemem: none)
define internal ptr @int_seq_start(ptr nocapture readnone %0, ptr noundef readonly %1) #2 align 16 {
  %3 = load i64, ptr %1, align 8
  %4 = load i32, ptr @nr_irqs, align 4
  %5 = sext i32 %4 to i64
  %6 = icmp sgt i64 %3, %5
  %7 = select i1 %6, ptr null, ptr %1
  ret ptr %7
}

; Function Attrs: fn_ret_thunk_extern mustprogress nofree norecurse nosync nounwind null_pointer_is_valid willreturn memory(none)
define internal void @int_seq_stop(ptr nocapture readnone %0, ptr nocapture readnone %1) #3 align 16 {
  ret void
}

; Function Attrs: fn_ret_thunk_extern mustprogress nofree norecurse nosync nounwind null_pointer_is_valid willreturn memory(read, argmem: readwrite, inaccessiblemem: none)
define internal ptr @int_seq_next(ptr nocapture readnone %0, ptr nocapture readnone %1, ptr noundef %2) #4 align 16 {
  %4 = load i64, ptr %2, align 8
  %5 = add i64 %4, 1
  store i64 %5, ptr %2, align 8
  %6 = load i32, ptr @nr_irqs, align 4
  %7 = sext i32 %6 to i64
  %8 = icmp sgt i64 %5, %7
  %9 = select i1 %8, ptr null, ptr %2
  ret ptr %9
}

; Function Attrs: null_pointer_is_valid
declare dso_local i32 @show_interrupts(ptr noundef, ptr noundef) #1


!llvm.module.flags = !{!0, !1, !2, !3, !4}

!0 = !{i32 1, !"wchar_size", i32 2}
!1 = !{i32 8, !"cf-protection-branch", i32 1}
!2 = !{i32 4, !"function_return_thunk_extern", i32 1}
!3 = !{i32 4, !"indirect_branch_cs_prefix", i32 1}
!4 = !{i32 4, !"SkipRaxSetup", i32 1}
